target datalayout = "e-m:e-p270:32:32-p271:32:32-p272:64:64-i64:64-i128:128-f80:128-n8:16:32:64-S128"
target triple = "x86_64-pc-linux-gnu"

%struct.new_wrap_arg_t = type { i32, ptr, i64 }

; Function Attrs: nounwind sspstrong uwtable
define internal i64 @new_wrap(i64 noundef %0) #0 {
  %2 = alloca i64, align 8
  %3 = alloca ptr, align 8
  store i64 %0, ptr %2, align 8, !tbaa !6
  call void @llvm.lifetime.start.p0(i64 8, ptr %3) #23
  %4 = load i64, ptr %2, align 8, !tbaa !6
  %5 = inttoptr i64 %4 to ptr
  store ptr %5, ptr %3, align 8, !tbaa !77
  %6 = load ptr, ptr %3, align 8, !tbaa !77
  %7 = getelementptr inbounds nuw %struct.new_wrap_arg_t, ptr %6, i32 0, i32 0
  %8 = load i32, ptr %7, align 8, !tbaa !126
  %9 = load ptr, ptr %3, align 8, !tbaa !77
  %10 = getelementptr inbounds nuw %struct.new_wrap_arg_t, ptr %9, i32 0, i32 1
  %11 = load ptr, ptr %10, align 8, !tbaa !128
  %12 = load ptr, ptr %3, align 8, !tbaa !77
  %13 = getelementptr inbounds nuw %struct.new_wrap_arg_t, ptr %12, i32 0, i32 2
  %14 = load i64, ptr %13, align 8, !tbaa !129
  %15 = call i32 @rb_keyword_given_p()
  %16 = icmp ne i32 %15, 0
  %17 = xor i1 %16, true
  %18 = xor i1 %17, true
  %19 = zext i1 %18 to i32
  %20 = call i64 @rb_class_new_instance_kw(i32 noundef %8, ptr noundef %11, i64 noundef %14, i32 noundef %19)
  call void @llvm.lifetime.end.p0(i64 8, ptr %3) #23
  ret i64 %20
}