; Function Attrs: nounwind sspstrong uwtable
define internal i64 @new_wrap(i64 noundef %0) #0 {
  %2 = inttoptr i64 %0 to ptr
  %3 = load i32, ptr %2, align 8, !tbaa !251
  %4 = getelementptr inbounds nuw i8, ptr %2, i64 8
  %5 = load ptr, ptr %4, align 8, !tbaa !253
  %6 = getelementptr inbounds nuw i8, ptr %2, i64 16
  %7 = load i64, ptr %6, align 8, !tbaa !254
  %8 = tail call i32 @rb_keyword_given_p() #18
  %9 = icmp ne i32 %8, 0
  %10 = zext i1 %9 to i32
  %11 = tail call i64 @rb_class_new_instance_kw(i32 noundef %3, ptr noundef %5, i64 noundef %7, i32 noundef %10) #18
  ret i64 %11
}